target datalayout = "e-m:e-p270:32:32-p271:32:32-p272:64:64-i64:64-i128:128-f80:128-n8:16:32:64-S128"
target triple = "x86_64-pc-linux-gnu"

@av_util_ffversion = constant [36 x i8] c"FFmpeg version N-119596-gfd18ae88ae\00", align 16
@.str = private unnamed_addr constant [21 x i8] c"N-119596-gfd18ae88ae\00", align 1
@.str.1 = private unnamed_addr constant [496 x i8] c"--disable-debug --disable-asm --cc=clang-21 --cxx=clang++-21 --extra-cflags='-w -Wno-unused-command-line-argument -DNDEBUG -O3 -fpass-plugin=/home/dtcxzyw/WorkSpace/Projects/compilers/llvm-opt-benchmark/build/preprocess.so -Qn -g0' --extra-cxxflags='-w -Wno-unused-command-line-argument -DNDEBUG -O3 -fpass-plugin=/home/dtcxzyw/WorkSpace/Projects/compilers/llvm-opt-benchmark/build/preprocess.so -Qn -g0' --disable-doc --disable-htmlpages --disable-manpages --disable-podpages --disable-txtpages\00", align 1
@.str.2 = private unnamed_addr constant [45 x i8] c"libavutil license: LGPL version 2.1 or later\00", align 1

; Function Attrs: nounwind uwtable
define ptr @av_version_info() #0 {
  ret ptr @.str
}

; Function Attrs: nounwind uwtable
define i32 @avutil_version() #0 {
  ret i32 3932772
}

; Function Attrs: nounwind uwtable
define ptr @avutil_configuration() #0 {
  ret ptr @.str.1
}

; Function Attrs: nounwind uwtable
define ptr @avutil_license() #0 {
  ret ptr getelementptr inbounds nuw ([45 x i8], ptr @.str.2, i64 0, i64 19)
}


!llvm.module.flags = !{!0, !1, !2, !3}

!0 = !{i32 1, !"wchar_size", i32 4}
!1 = !{i32 8, !"PIC Level", i32 2}
!2 = !{i32 7, !"uwtable", i32 2}
!3 = !{i32 1, !"override-stack-alignment", i32 16}
